Certificate:
    Data:
        Version: 3 (0x2)
        Serial Number: 122 (0x7a)
    Signature Algorithm: sha256WithRSAEncryption
        Issuer: C=US, ST=CA, L=Cupertino, O=Mist Systems, OU=SecOps, CN=Mist Systems CA/name=vpn-mist-production/emailAddress=info.security@mistsys.com
        Validity
            Not Before: Aug 21 06:52:04 2019 GMT
            Not After : Aug 18 06:52:04 2029 GMT
        Subject: C=US, ST=CA, L=Cupertino, O=Mist Systems, OU=SecOps, CN=anshukp@juniper.net/name=vpn-mist-production/emailAddress=info.security@mistsys.com
        Subject Public Key Info:
            Public Key Algorithm: rsaEncryption
                Public-Key: (2048 bit)
                Modulus:
                    00:a7:1a:eb:2a:5b:47:00:cf:b8:4b:af:73:c6:d1:
                    47:63:c7:58:ad:ff:e7:02:0e:a0:40:85:bb:b4:d8:
                    4f:d6:94:40:9d:b2:f8:ec:38:22:c0:c8:06:48:77:
                    be:80:43:8d:cc:56:40:70:06:da:cb:9a:e7:67:90:
                    5c:f5:8f:3e:98:62:2c:0e:c0:7d:d3:e0:49:eb:b1:
                    4b:cb:92:0b:f4:c8:f8:1e:38:c1:63:a5:e0:9e:6d:
                    30:26:ea:3d:ab:d2:ad:72:ed:bb:f5:d6:4c:41:bd:
                    e9:4e:95:12:e9:ff:34:3d:6d:50:85:9f:3c:5b:87:
                    3b:d7:13:07:f0:ac:9c:04:a0:49:65:04:20:79:06:
                    4d:52:24:82:15:c3:2e:34:df:20:ce:20:f4:0d:0b:
                    5d:42:c8:3f:9f:a6:c8:71:70:de:63:19:5d:0a:f5:
                    bd:d9:65:10:33:da:68:ef:3a:3f:ea:99:68:11:06:
                    b3:bf:db:09:bc:48:d8:3c:f8:4b:30:07:c6:44:93:
                    dd:aa:62:a7:a2:38:f9:41:7a:57:62:25:51:5c:3f:
                    95:0c:c4:eb:1e:72:c6:e1:d5:63:a5:01:c2:84:95:
                    28:ff:9e:9d:d9:78:31:4f:6e:c2:d1:14:8b:8a:c0:
                    12:cc:6d:8f:6c:2f:59:85:a0:6d:05:79:54:ec:46:
                    16:59
                Exponent: 65537 (0x10001)
        X509v3 extensions:
            X509v3 Basic Constraints: 
                CA:FALSE
            Netscape Comment: 
                Easy-RSA Generated Certificate
            X509v3 Subject Key Identifier: 
                46:F6:AE:3A:61:1A:DD:9E:6F:C1:4D:E0:9B:37:C5:17:EB:55:85:E7
            X509v3 Authority Key Identifier: 
                keyid:B3:51:A5:25:5C:CF:9A:2E:7A:A8:92:E9:09:81:B6:8A:C8:89:92:6C
                DirName:/C=US/ST=CA/L=Cupertino/O=Mist Systems/OU=SecOps/CN=Mist Systems CA/name=vpn-mist-production/emailAddress=info.security@mistsys.com
                serial:D4:62:B3:67:1D:95:F3:75

            X509v3 Extended Key Usage: 
                TLS Web Client Authentication
            X509v3 Key Usage: 
                Digital Signature
            X509v3 Subject Alternative Name: 
                DNS:anshukp@juniper.net
    Signature Algorithm: sha256WithRSAEncryption
         c6:c8:b2:46:d9:07:90:9d:64:2c:79:b4:c7:a6:7d:b9:3e:f1:
         96:3d:bb:8f:a4:05:4f:1f:e9:48:ea:3f:ba:af:cd:56:90:33:
         23:fd:94:b1:dd:d5:a4:30:4b:e2:62:c5:70:c4:fc:5b:47:c6:
         ae:eb:a0:e9:2e:0f:73:9a:cc:16:7f:08:2b:3b:68:5f:e7:9e:
         89:3f:e0:5f:f7:ed:68:b1:a7:18:b8:ff:bd:4e:9e:bd:3b:99:
         1b:e1:ec:91:6e:40:2e:4f:22:f8:f2:99:d9:3e:16:44:c8:c5:
         25:62:b4:3a:51:eb:91:8c:2f:56:1c:3f:c3:7a:9b:8a:02:25:
         f6:55:ce:0e:65:0e:21:86:9e:61:b3:f4:93:04:eb:9f:bf:b8:
         98:ac:f2:a3:80:8e:a1:f7:9a:ab:e3:83:af:00:43:09:fe:7b:
         4d:f2:c0:6b:7d:85:67:f3:56:61:3b:3f:ce:71:61:6a:eb:83:
         30:50:7d:23:30:22:cb:f0:bd:c6:6b:28:a0:6e:35:fa:fd:b4:
         d3:3a:3f:f8:b6:f1:ee:a1:3d:3a:10:8c:e8:79:a1:56:54:fa:
         c0:47:1d:83:75:9d:33:7b:b3:6b:a5:5f:2a:72:82:0e:82:de:
         6b:db:5b:e2:f6:ee:9f:8d:e9:ec:9c:81:68:9f:46:dc:67:55:
         d3:f1:dd:43
-----BEGIN CERTIFICATE-----
MIIFgjCCBGqgAwIBAgIBejANBgkqhkiG9w0BAQsFADCBuDELMAkGA1UEBhMCVVMx
CzAJBgNVBAgTAkNBMRIwEAYDVQQHEwlDdXBlcnRpbm8xFTATBgNVBAoTDE1pc3Qg
U3lzdGVtczEPMA0GA1UECxMGU2VjT3BzMRgwFgYDVQQDEw9NaXN0IFN5c3RlbXMg
Q0ExHDAaBgNVBCkTE3Zwbi1taXN0LXByb2R1Y3Rpb24xKDAmBgkqhkiG9w0BCQEW
GWluZm8uc2VjdXJpdHlAbWlzdHN5cy5jb20wHhcNMTkwODIxMDY1MjA0WhcNMjkw
ODE4MDY1MjA0WjCBvDELMAkGA1UEBhMCVVMxCzAJBgNVBAgTAkNBMRIwEAYDVQQH
EwlDdXBlcnRpbm8xFTATBgNVBAoTDE1pc3QgU3lzdGVtczEPMA0GA1UECxMGU2Vj
T3BzMRwwGgYDVQQDFBNhbnNodWtwQGp1bmlwZXIubmV0MRwwGgYDVQQpExN2cG4t
bWlzdC1wcm9kdWN0aW9uMSgwJgYJKoZIhvcNAQkBFhlpbmZvLnNlY3VyaXR5QG1p
c3RzeXMuY29tMIIBIjANBgkqhkiG9w0BAQEFAAOCAQ8AMIIBCgKCAQEApxrrKltH
AM+4S69zxtFHY8dYrf/nAg6gQIW7tNhP1pRAnbL47DgiwMgGSHe+gEONzFZAcAba
y5rnZ5Bc9Y8+mGIsDsB90+BJ67FLy5IL9Mj4HjjBY6Xgnm0wJuo9q9Ktcu279dZM
Qb3pTpUS6f80PW1QhZ88W4c71xMH8KycBKBJZQQgeQZNUiSCFcMuNN8gziD0DQtd
Qsg/n6bIcXDeYxldCvW92WUQM9po7zo/6ploEQazv9sJvEjYPPhLMAfGRJPdqmKn
ojj5QXpXYiVRXD+VDMTrHnLG4dVjpQHChJUo/56d2XgxT27C0RSLisASzG2PbC9Z
haBtBXlU7EYWWQIDAQABo4IBjzCCAYswCQYDVR0TBAIwADAtBglghkgBhvhCAQ0E
IBYeRWFzeS1SU0EgR2VuZXJhdGVkIENlcnRpZmljYXRlMB0GA1UdDgQWBBRG9q46
YRrdnm/BTeCbN8UX61WF5zCB7QYDVR0jBIHlMIHigBSzUaUlXM+aLnqokukJgbaK
yImSbKGBvqSBuzCBuDELMAkGA1UEBhMCVVMxCzAJBgNVBAgTAkNBMRIwEAYDVQQH
EwlDdXBlcnRpbm8xFTATBgNVBAoTDE1pc3QgU3lzdGVtczEPMA0GA1UECxMGU2Vj
T3BzMRgwFgYDVQQDEw9NaXN0IFN5c3RlbXMgQ0ExHDAaBgNVBCkTE3Zwbi1taXN0
LXByb2R1Y3Rpb24xKDAmBgkqhkiG9w0BCQEWGWluZm8uc2VjdXJpdHlAbWlzdHN5
cy5jb22CCQDUYrNnHZXzdTATBgNVHSUEDDAKBggrBgEFBQcDAjALBgNVHQ8EBAMC
B4AwHgYDVR0RBBcwFYITYW5zaHVrcEBqdW5pcGVyLm5ldDANBgkqhkiG9w0BAQsF
AAOCAQEAxsiyRtkHkJ1kLHm0x6Z9uT7xlj27j6QFTx/pSOo/uq/NVpAzI/2Usd3V
pDBL4mLFcMT8W0fGruug6S4Pc5rMFn8IKztoX+eeiT/gX/ftaLGnGLj/vU6evTuZ
G+HskW5ALk8i+PKZ2T4WRMjFJWK0OlHrkYwvVhw/w3qbigIl9lXODmUOIYaeYbP0
kwTrn7+4mKzyo4COofeaq+ODrwBDCf57TfLAa32FZ/NWYTs/znFhauuDMFB9IzAi
y/C9xmsooG41+v200zo/+Lbx7qE9OhCM6HmhVlT6wEcdg3WdM3uza6VfKnKCDoLe
a9tb4vbun43p7JyBaJ9G3GdV0/HdQw==
-----END CERTIFICATE-----
